target datalayout = "e-m:e-p270:32:32-p271:32:32-p272:64:64-i64:64-i128:128-f80:128-n8:16:32:64-S128"
target triple = "x86_64-pc-linux-gnu"

%struct.strvec = type { ptr, i64, i64 }
%struct.strbuf = type { i64, i64, ptr }
%struct.child_process = type { %struct.strvec, %struct.strvec, i32, i32, i64, ptr, ptr, i32, i32, i32, ptr, i16, ptr }

@ssh_default_key_command = internal global ptr null, align 8
@.str.84 = private unnamed_addr constant [6 x i8] c"key::\00", align 1
@.str.85 = private unnamed_addr constant [5 x i8] c"ssh-\00", align 1
@__const.get_default_ssh_signing_key.key_stdout = private unnamed_addr constant %struct.strbuf { i64 0, i64 0, ptr @strbuf_slopbuf }, align 8
@__const.get_default_ssh_signing_key.key_stderr = private unnamed_addr constant %struct.strbuf { i64 0, i64 0, ptr @strbuf_slopbuf }, align 8
@.str.86 = private unnamed_addr constant [75 x i8] c"either user.signingkey or gpg.ssh.defaultKeyCommand needs to be configured\00", align 1
@.str.87 = private unnamed_addr constant [51 x i8] c"malformed build-time gpg.ssh.defaultKeyCommand: %s\00", align 1
@.str.88 = private unnamed_addr constant [64 x i8] c"gpg.ssh.defaultKeyCommand succeeded but returned no keys: %s %s\00", align 1
@.str.89 = private unnamed_addr constant [40 x i8] c"gpg.ssh.defaultKeyCommand failed: %s %s\00", align 1

; Function Attrs: inlinehint nounwind uwtable
define internal zeroext i1 @skip_prefix(ptr noundef %0, ptr noundef %1, ptr noundef %2) #4 {
  %4 = alloca i1, align 1
  %5 = alloca ptr, align 8
  %6 = alloca ptr, align 8
  %7 = alloca ptr, align 8
  store ptr %0, ptr %5, align 8, !tbaa !20
  store ptr %1, ptr %6, align 8, !tbaa !20
  store ptr %2, ptr %7, align 8, !tbaa !77
  br label %8

8:                                                ; preds = %16, %3
  %9 = load ptr, ptr %6, align 8, !tbaa !20
  %10 = load i8, ptr %9, align 1, !tbaa !34
  %11 = icmp ne i8 %10, 0
  br i1 %11, label %15, label %12

12:                                               ; preds = %8
  %13 = load ptr, ptr %5, align 8, !tbaa !20
  %14 = load ptr, ptr %7, align 8, !tbaa !77
  store ptr %13, ptr %14, align 8, !tbaa !20
  store i1 true, ptr %4, align 1
  br label %27

15:                                               ; preds = %8
  br label %16

16:                                               ; preds = %15
  %17 = load ptr, ptr %5, align 8, !tbaa !20
  %18 = getelementptr inbounds nuw i8, ptr %17, i32 1
  store ptr %18, ptr %5, align 8, !tbaa !20
  %19 = load i8, ptr %17, align 1, !tbaa !34
  %20 = sext i8 %19 to i32
  %21 = load ptr, ptr %6, align 8, !tbaa !20
  %22 = getelementptr inbounds nuw i8, ptr %21, i32 1
  store ptr %22, ptr %6, align 8, !tbaa !20
  %23 = load i8, ptr %21, align 1, !tbaa !34
  %24 = sext i8 %23 to i32
  %25 = icmp eq i32 %20, %24
  br i1 %25, label %8, label %26, !llvm.loop !88

26:                                               ; preds = %16
  store i1 false, ptr %4, align 1
  br label %27

27:                                               ; preds = %26, %12
  %28 = load i1, ptr %4, align 1
  ret i1 %28
}

; Function Attrs: nounwind uwtable
define internal i32 @is_literal_ssh_key(ptr noundef %0, ptr noundef %1) #0 {
  %3 = alloca i32, align 4
  %4 = alloca ptr, align 8
  %5 = alloca ptr, align 8
  store ptr %0, ptr %4, align 8, !tbaa !20
  store ptr %1, ptr %5, align 8, !tbaa !77
  %6 = load ptr, ptr %4, align 8, !tbaa !20
  %7 = load ptr, ptr %5, align 8, !tbaa !77
  %8 = call zeroext i1 @skip_prefix(ptr noundef %6, ptr noundef @.str.84, ptr noundef %7)
  br i1 %8, label %9, label %10

9:                                                ; preds = %2
  store i32 1, ptr %3, align 4
  br label %18

10:                                               ; preds = %2
  %11 = load ptr, ptr %4, align 8, !tbaa !20
  %12 = call i32 @starts_with(ptr noundef %11, ptr noundef @.str.85)
  %13 = icmp ne i32 %12, 0
  br i1 %13, label %14, label %17

14:                                               ; preds = %10
  %15 = load ptr, ptr %4, align 8, !tbaa !20
  %16 = load ptr, ptr %5, align 8, !tbaa !77
  store ptr %15, ptr %16, align 8, !tbaa !20
  store i32 1, ptr %3, align 4
  br label %18

17:                                               ; preds = %10
  store i32 0, ptr %3, align 4
  br label %18

18:                                               ; preds = %17, %14, %9
  %19 = load i32, ptr %3, align 4
  ret i32 %19
}

; Function Attrs: inlinehint nounwind uwtable
define internal ptr @strbuf_split_max(ptr noundef %0, i32 noundef %1, i32 noundef %2) #4 {
  %4 = alloca ptr, align 8
  %5 = alloca i32, align 4
  %6 = alloca i32, align 4
  store ptr %0, ptr %4, align 8, !tbaa !44
  store i32 %1, ptr %5, align 4, !tbaa !29
  store i32 %2, ptr %6, align 4, !tbaa !29
  %7 = load ptr, ptr %4, align 8, !tbaa !44
  %8 = getelementptr inbounds nuw %struct.strbuf, ptr %7, i32 0, i32 2
  %9 = load ptr, ptr %8, align 8, !tbaa !73
  %10 = load ptr, ptr %4, align 8, !tbaa !44
  %11 = getelementptr inbounds nuw %struct.strbuf, ptr %10, i32 0, i32 1
  %12 = load i64, ptr %11, align 8, !tbaa !74
  %13 = load i32, ptr %5, align 4, !tbaa !29
  %14 = load i32, ptr %6, align 4, !tbaa !29
  %15 = call ptr @strbuf_split_buf(ptr noundef %9, i64 noundef %12, i32 noundef %13, i32 noundef %14)
  ret ptr %15
}

; Function Attrs: nounwind uwtable
define internal ptr @get_default_ssh_signing_key() #0 {
  %1 = alloca %struct.child_process, align 8
  %2 = alloca i32, align 4
  %3 = alloca %struct.strbuf, align 8
  %4 = alloca %struct.strbuf, align 8
  %5 = alloca ptr, align 8
  %6 = alloca ptr, align 8
  %7 = alloca ptr, align 8
  %8 = alloca i32, align 4
  %9 = alloca ptr, align 8
  %10 = alloca ptr, align 8
  call void @llvm.lifetime.start.p0(i64 120, ptr %1) #8
  call void @llvm.memcpy.p0.p0.i64(ptr align 8 %1, ptr align 8 @__const.get_default_ssh_signing_key.ssh_default_key, i64 120, i1 false)
  call void @llvm.lifetime.start.p0(i64 4, ptr %2) #8
  store i32 -1, ptr %2, align 4, !tbaa !29
  call void @llvm.lifetime.start.p0(i64 24, ptr %3) #8
  call void @llvm.memcpy.p0.p0.i64(ptr align 8 %3, ptr align 8 @__const.get_default_ssh_signing_key.key_stdout, i64 24, i1 false)
  call void @llvm.lifetime.start.p0(i64 24, ptr %4) #8
  call void @llvm.memcpy.p0.p0.i64(ptr align 8 %4, ptr align 8 @__const.get_default_ssh_signing_key.key_stderr, i64 24, i1 false)
  call void @llvm.lifetime.start.p0(i64 8, ptr %5) #8
  call void @llvm.lifetime.start.p0(i64 8, ptr %6) #8
  store ptr null, ptr %6, align 8, !tbaa !20
  call void @llvm.lifetime.start.p0(i64 8, ptr %7) #8
  call void @llvm.lifetime.start.p0(i64 4, ptr %8) #8
  call void @llvm.lifetime.start.p0(i64 8, ptr %9) #8
  store ptr null, ptr %9, align 8, !tbaa !20
  call void @llvm.lifetime.start.p0(i64 8, ptr %10) #8
  store ptr null, ptr %10, align 8, !tbaa !20
  %11 = load ptr, ptr @ssh_default_key_command, align 8, !tbaa !20
  %12 = icmp ne ptr %11, null
  br i1 %12, label %15, label %13

13:                                               ; preds = %0
  %14 = call ptr @_(ptr noundef @.str.86)
  call void (ptr, ...) @die(ptr noundef %14) #9
  unreachable

15:                                               ; preds = %0
  %16 = load ptr, ptr @ssh_default_key_command, align 8, !tbaa !20
  %17 = call ptr @xstrdup(ptr noundef %16)
  store ptr %17, ptr %6, align 8, !tbaa !20
  %18 = load ptr, ptr %6, align 8, !tbaa !20
  %19 = call i32 @split_cmdline(ptr noundef %18, ptr noundef %7)
  store i32 %19, ptr %8, align 4, !tbaa !29
  %20 = load i32, ptr %8, align 4, !tbaa !29
  %21 = icmp slt i32 %20, 0
  br i1 %21, label %22, label %25

22:                                               ; preds = %15
  %23 = load i32, ptr %8, align 4, !tbaa !29
  %24 = call ptr @split_cmdline_strerror(i32 noundef %23)
  call void (ptr, ...) @die(ptr noundef @.str.87, ptr noundef %24) #9
  unreachable

25:                                               ; preds = %15
  %26 = getelementptr inbounds nuw %struct.child_process, ptr %1, i32 0, i32 0
  %27 = load ptr, ptr %7, align 8, !tbaa !77
  call void @strvec_pushv(ptr noundef %26, ptr noundef %27)
  %28 = call i32 @pipe_command(ptr noundef %1, ptr noundef null, i64 noundef 0, ptr noundef %3, i64 noundef 0, ptr noundef %4, i64 noundef 0)
  store i32 %28, ptr %2, align 4, !tbaa !29
  %29 = load i32, ptr %2, align 4, !tbaa !29
  %30 = icmp ne i32 %29, 0
  br i1 %30, label %58, label %31

31:                                               ; preds = %25
  %32 = call ptr @strbuf_split_max(ptr noundef %3, i32 noundef 10, i32 noundef 2)
  store ptr %32, ptr %5, align 8, !tbaa !78
  %33 = load ptr, ptr %5, align 8, !tbaa !78
  %34 = getelementptr inbounds ptr, ptr %33, i64 0
  %35 = load ptr, ptr %34, align 8, !tbaa !44
  %36 = icmp ne ptr %35, null
  br i1 %36, label %37, label %50

37:                                               ; preds = %31
  %38 = load ptr, ptr %5, align 8, !tbaa !78
  %39 = getelementptr inbounds ptr, ptr %38, i64 0
  %40 = load ptr, ptr %39, align 8, !tbaa !44
  %41 = getelementptr inbounds nuw %struct.strbuf, ptr %40, i32 0, i32 2
  %42 = load ptr, ptr %41, align 8, !tbaa !73
  %43 = call i32 @is_literal_ssh_key(ptr noundef %42, ptr noundef %10)
  %44 = icmp ne i32 %43, 0
  br i1 %44, label %45, label %50

45:                                               ; preds = %37
  %46 = load ptr, ptr %5, align 8, !tbaa !78
  %47 = getelementptr inbounds ptr, ptr %46, i64 0
  %48 = load ptr, ptr %47, align 8, !tbaa !44
  %49 = call ptr @strbuf_detach(ptr noundef %48, ptr noundef null)
  store ptr %49, ptr %9, align 8, !tbaa !20
  br label %56

50:                                               ; preds = %37, %31
  %51 = call ptr @_(ptr noundef @.str.88)
  %52 = getelementptr inbounds nuw %struct.strbuf, ptr %4, i32 0, i32 2
  %53 = load ptr, ptr %52, align 8, !tbaa !73
  %54 = getelementptr inbounds nuw %struct.strbuf, ptr %3, i32 0, i32 2
  %55 = load ptr, ptr %54, align 8, !tbaa !73
  call void (ptr, ...) @warning(ptr noundef %51, ptr noundef %53, ptr noundef %55)
  br label %56

56:                                               ; preds = %50, %45
  %57 = load ptr, ptr %5, align 8, !tbaa !78
  call void @strbuf_list_free(ptr noundef %57)
  br label %64

58:                                               ; preds = %25
  %59 = call ptr @_(ptr noundef @.str.89)
  %60 = getelementptr inbounds nuw %struct.strbuf, ptr %4, i32 0, i32 2
  %61 = load ptr, ptr %60, align 8, !tbaa !73
  %62 = getelementptr inbounds nuw %struct.strbuf, ptr %3, i32 0, i32 2
  %63 = load ptr, ptr %62, align 8, !tbaa !73
  call void (ptr, ...) @warning(ptr noundef %59, ptr noundef %61, ptr noundef %63)
  br label %64

64:                                               ; preds = %58, %56
  %65 = load ptr, ptr %6, align 8, !tbaa !20
  call void @free(ptr noundef %65) #8
  %66 = load ptr, ptr %7, align 8, !tbaa !77
  call void @free(ptr noundef %66) #8
  call void @strbuf_release(ptr noundef %3)
  %67 = load ptr, ptr %9, align 8, !tbaa !20
  call void @llvm.lifetime.end.p0(i64 8, ptr %10) #8
  call void @llvm.lifetime.end.p0(i64 8, ptr %9) #8
  call void @llvm.lifetime.end.p0(i64 4, ptr %8) #8
  call void @llvm.lifetime.end.p0(i64 8, ptr %7) #8
  call void @llvm.lifetime.end.p0(i64 8, ptr %6) #8
  call void @llvm.lifetime.end.p0(i64 8, ptr %5) #8
  call void @llvm.lifetime.end.p0(i64 24, ptr %4) #8
  call void @llvm.lifetime.end.p0(i64 24, ptr %3) #8
  call void @llvm.lifetime.end.p0(i64 4, ptr %2) #8
  call void @llvm.lifetime.end.p0(i64 120, ptr %1) #8
  ret ptr %67
}