; Function Attrs: nounwind uwtable
define internal ptr @get_default_ssh_signing_key() #2 {
  %1 = alloca %struct.child_process, align 8
  %2 = alloca %struct.strbuf, align 8
  %3 = alloca %struct.strbuf, align 8
  %4 = alloca ptr, align 8
  call void @llvm.lifetime.start.p0(i64 120, ptr nonnull %1) #15
  call void @llvm.memcpy.p0.p0.i64(ptr noundef nonnull align 8 dereferenceable(120) %1, ptr noundef nonnull align 8 dereferenceable(120) @__const.get_ssh_key_fingerprint.ssh_keygen, i64 120, i1 false)
  call void @llvm.lifetime.start.p0(i64 24, ptr nonnull %2) #15
  call void @llvm.memcpy.p0.p0.i64(ptr noundef nonnull align 8 dereferenceable(24) %2, ptr noundef nonnull align 8 dereferenceable(24) @__const.get_ssh_key_fingerprint.fingerprint_stdout, i64 24, i1 false)
  call void @llvm.lifetime.start.p0(i64 24, ptr nonnull %3) #15
  call void @llvm.memcpy.p0.p0.i64(ptr noundef nonnull align 8 dereferenceable(24) %3, ptr noundef nonnull align 8 dereferenceable(24) @__const.get_ssh_key_fingerprint.fingerprint_stdout, i64 24, i1 false)
  call void @llvm.lifetime.start.p0(i64 8, ptr nonnull %4) #15
  %5 = load ptr, ptr @ssh_default_key_command, align 8, !tbaa !25
  %.not = icmp eq ptr %5, null
  br i1 %.not, label %6, label %8

6:                                                ; preds = %0
  %7 = tail call fastcc ptr @_(ptr noundef nonnull @.str.86)
  tail call void (ptr, ...) @die(ptr noundef %7) #16
  unreachable

8:                                                ; preds = %0
  %9 = tail call ptr @xstrdup(ptr noundef nonnull %5) #15
  %10 = call i32 @split_cmdline(ptr noundef %9, ptr noundef nonnull %4) #15
  %11 = icmp slt i32 %10, 0
  br i1 %11, label %12, label %14

12:                                               ; preds = %8
  %13 = call ptr @split_cmdline_strerror(i32 noundef %10) #15
  call void (ptr, ...) @die(ptr noundef nonnull @.str.87, ptr noundef %13) #16
  unreachable

14:                                               ; preds = %8
  %15 = load ptr, ptr %4, align 8, !tbaa !75
  call void @strvec_pushv(ptr noundef nonnull %1, ptr noundef %15) #15
  %16 = call i32 @pipe_command(ptr noundef nonnull %1, ptr noundef null, i64 noundef 0, ptr noundef nonnull %2, i64 noundef 0, ptr noundef nonnull %3, i64 noundef 0) #15
  %.not12 = icmp eq i32 %16, 0
  br i1 %.not12, label %17, label %41

17:                                               ; preds = %14
  %18 = getelementptr inbounds nuw i8, ptr %2, i64 8
  %.val = load i64, ptr %18, align 8, !tbaa !70
  %19 = getelementptr inbounds nuw i8, ptr %2, i64 16
  %.val15 = load ptr, ptr %19, align 8, !tbaa !60
  %20 = call ptr @strbuf_split_buf(ptr noundef %.val15, i64 noundef %.val, i32 noundef 10, i32 noundef 2) #15
  %21 = load ptr, ptr %20, align 8, !tbaa !76
  %.not13 = icmp eq ptr %21, null
  br i1 %.not13, label %is_literal_ssh_key.exit.thread, label %22

22:                                               ; preds = %17
  %23 = getelementptr inbounds nuw i8, ptr %21, i64 16
  %24 = load ptr, ptr %23, align 8, !tbaa !60
  br label %25

25:                                               ; preds = %26, %22
  %.07.i.i = phi ptr [ %24, %22 ], [ %28, %26 ]
  %.06.i.idx.i = phi i64 [ 0, %22 ], [ %.06.i.add.i, %26 ]
  %exitcond.i = icmp eq i64 %.06.i.idx.i, 5
  br i1 %exitcond.i, label %is_literal_ssh_key.exit, label %26

26:                                               ; preds = %25
  %.06.i.ptr.i = getelementptr inbounds nuw i8, ptr @.str.84, i64 %.06.i.idx.i
  %27 = load i8, ptr %.06.i.ptr.i, align 1, !tbaa !33
  %28 = getelementptr inbounds nuw i8, ptr %.07.i.i, i64 1
  %29 = load i8, ptr %.07.i.i, align 1, !tbaa !33
  %.06.i.add.i = add nuw nsw i64 %.06.i.idx.i, 1
  %30 = icmp eq i8 %29, %27
  br i1 %30, label %25, label %skip_prefix.exit.i, !llvm.loop !62

skip_prefix.exit.i:                               ; preds = %26
  %31 = call i32 @starts_with(ptr noundef %24, ptr noundef nonnull @.str.85) #15
  %.not.i = icmp eq i32 %31, 0
  br i1 %.not.i, label %is_literal_ssh_key.exit.thread, label %skip_prefix.exit.i.is_literal_ssh_key.exit_crit_edge

skip_prefix.exit.i.is_literal_ssh_key.exit_crit_edge: ; preds = %skip_prefix.exit.i
  %.pre = load ptr, ptr %20, align 8, !tbaa !76
  br label %is_literal_ssh_key.exit

is_literal_ssh_key.exit:                          ; preds = %25, %skip_prefix.exit.i.is_literal_ssh_key.exit_crit_edge
  %32 = phi ptr [ %.pre, %skip_prefix.exit.i.is_literal_ssh_key.exit_crit_edge ], [ %21, %25 ]
  %33 = call ptr @strbuf_detach(ptr noundef %32, ptr noundef null) #15
  br label %40

is_literal_ssh_key.exit.thread:                   ; preds = %skip_prefix.exit.i, %17
  %34 = load i32, ptr @git_gettext_enabled, align 4, !tbaa !32
  %.not4.i = icmp eq i32 %34, 0
  br i1 %.not4.i, label %_.exit, label %35

35:                                               ; preds = %is_literal_ssh_key.exit.thread
  %36 = call ptr @dcgettext(ptr noundef null, ptr noundef nonnull @.str.88, i32 noundef 5) #15
  br label %_.exit

_.exit:                                           ; preds = %is_literal_ssh_key.exit.thread, %35
  %.0.i16 = phi ptr [ %36, %35 ], [ @.str.88, %is_literal_ssh_key.exit.thread ]
  %37 = getelementptr inbounds nuw i8, ptr %3, i64 16
  %38 = load ptr, ptr %37, align 8, !tbaa !60
  %39 = load ptr, ptr %19, align 8, !tbaa !60
  call void (ptr, ...) @warning(ptr noundef %.0.i16, ptr noundef %38, ptr noundef %39) #15
  br label %40

40:                                               ; preds = %_.exit, %is_literal_ssh_key.exit
  %.0 = phi ptr [ %33, %is_literal_ssh_key.exit ], [ null, %_.exit ]
  call void @strbuf_list_free(ptr noundef nonnull %20) #15
  br label %49

41:                                               ; preds = %14
  %42 = load i32, ptr @git_gettext_enabled, align 4, !tbaa !32
  %.not4.i17 = icmp eq i32 %42, 0
  br i1 %.not4.i17, label %_.exit19, label %43

43:                                               ; preds = %41
  %44 = call ptr @dcgettext(ptr noundef null, ptr noundef nonnull @.str.89, i32 noundef 5) #15
  br label %_.exit19

_.exit19:                                         ; preds = %41, %43
  %.0.i18 = phi ptr [ %44, %43 ], [ @.str.89, %41 ]
  %45 = getelementptr inbounds nuw i8, ptr %3, i64 16
  %46 = load ptr, ptr %45, align 8, !tbaa !60
  %47 = getelementptr inbounds nuw i8, ptr %2, i64 16
  %48 = load ptr, ptr %47, align 8, !tbaa !60
  call void (ptr, ...) @warning(ptr noundef %.0.i18, ptr noundef %46, ptr noundef %48) #15
  br label %49

49:                                               ; preds = %_.exit19, %40
  %.1 = phi ptr [ null, %_.exit19 ], [ %.0, %40 ]
  call void @free(ptr noundef %9) #15
  %50 = load ptr, ptr %4, align 8, !tbaa !75
  call void @free(ptr noundef %50) #15
  call void @strbuf_release(ptr noundef nonnull %2) #15
  call void @llvm.lifetime.end.p0(i64 8, ptr nonnull %4) #15
  call void @llvm.lifetime.end.p0(i64 24, ptr nonnull %3) #15
  call void @llvm.lifetime.end.p0(i64 24, ptr nonnull %2) #15
  call void @llvm.lifetime.end.p0(i64 120, ptr nonnull %1) #15
  ret ptr %.1
}